; Function Attrs: mustprogress uwtable
define dso_local void @_ZN28b3HashedOverlappingPairCache19cleanProxyFromPairsEiP12b3Dispatcher(ptr noundef nonnull align 8 dereferenceable(112) %0, i32 noundef %1, ptr noundef %2) unnamed_addr #0 align 2 personality ptr @__gxx_personality_v0 {
  %4 = alloca %class.CleanPairCallback, align 8
  call void @llvm.lifetime.start.p0(i64 32, ptr nonnull %4) #14
  store ptr getelementptr inbounds nuw inrange(-16, 24) (i8, ptr @_ZTVZN28b3HashedOverlappingPairCache19cleanProxyFromPairsEiP12b3DispatcherE17CleanPairCallback, i64 16), ptr %4, align 8, !tbaa !4
  %5 = getelementptr inbounds nuw i8, ptr %4, i64 8
  store i32 %1, ptr %5, align 8, !tbaa !38
  %6 = getelementptr inbounds nuw i8, ptr %4, i64 16
  store ptr %0, ptr %6, align 8, !tbaa !43
  %7 = getelementptr inbounds nuw i8, ptr %4, i64 24
  store ptr %2, ptr %7, align 8, !tbaa !44
  %8 = load ptr, ptr %0, align 8, !tbaa !4
  %9 = getelementptr inbounds nuw i8, ptr %8, i64 72
  %10 = load ptr, ptr %9, align 8
  call void %10(ptr noundef nonnull align 8 dereferenceable(112) %0, ptr noundef nonnull %4, ptr noundef %2)
  call void @llvm.lifetime.end.p0(i64 32, ptr nonnull %4) #14
  ret void
}